target datalayout = "e-m:e-p270:32:32-p271:32:32-p272:64:64-i64:64-i128:128-f80:128-n8:16:32:64-S128"
target triple = "x86_64-unknown-linux-gnu"

; Function Attrs: mustprogress nounwind uwtable
define noundef double @_ZN8QuantLib28exponential_integrals_helper1fEd(double noundef %x) #0 {
entry:
  %x.addr = alloca double, align 8
  %x2 = alloca double, align 8
  store double %x, ptr %x.addr, align 8, !tbaa !3
  call void @llvm.lifetime.start.p0(i64 8, ptr %x2) #13
  %0 = load double, ptr %x.addr, align 8, !tbaa !3
  %1 = load double, ptr %x.addr, align 8, !tbaa !3
  %mul = fmul double %0, %1
  %div = fdiv double 1.000000e+00, %mul
  store double %div, ptr %x2, align 8, !tbaa !3
  %2 = load double, ptr %x2, align 8, !tbaa !3
  %3 = load double, ptr %x2, align 8, !tbaa !3
  %4 = load double, ptr %x2, align 8, !tbaa !3
  %5 = load double, ptr %x2, align 8, !tbaa !3
  %6 = load double, ptr %x2, align 8, !tbaa !3
  %7 = load double, ptr %x2, align 8, !tbaa !3
  %8 = load double, ptr %x2, align 8, !tbaa !3
  %9 = load double, ptr %x2, align 8, !tbaa !3
  %10 = load double, ptr %x2, align 8, !tbaa !3
  %11 = load double, ptr %x2, align 8, !tbaa !3
  %neg = fneg double %11
  %12 = call double @llvm.fmuladd.f64(double %neg, double 0x425CCB9F32015A9F, double 0x42920056EACB3E14)
  %13 = call double @llvm.fmuladd.f64(double %10, double %12, double 0x42A255A4371F69B7)
  %14 = call double @llvm.fmuladd.f64(double %9, double %13, double 0x428EA124B58C7628)
  %15 = call double @llvm.fmuladd.f64(double %8, double %14, double 0x4262A4595375C0B4)
  %16 = call double @llvm.fmuladd.f64(double %7, double %15, double 0x42243289F49E1625)
  %17 = call double @llvm.fmuladd.f64(double %6, double %16, double 0x41D551D1358D9DA3)
  %18 = call double @llvm.fmuladd.f64(double %5, double %17, double 0x4176AC737033607B)
  %19 = call double @llvm.fmuladd.f64(double %4, double %18, double 0x4107F962FBB07365)
  %20 = call double @llvm.fmuladd.f64(double %3, double %19, double 0x4087437F1D97AD21)
  %21 = call double @llvm.fmuladd.f64(double %2, double %20, double 1.000000e+00)
  %22 = load double, ptr %x.addr, align 8, !tbaa !3
  %23 = load double, ptr %x2, align 8, !tbaa !3
  %24 = load double, ptr %x2, align 8, !tbaa !3
  %25 = load double, ptr %x2, align 8, !tbaa !3
  %26 = load double, ptr %x2, align 8, !tbaa !3
  %27 = load double, ptr %x2, align 8, !tbaa !3
  %28 = load double, ptr %x2, align 8, !tbaa !3
  %29 = load double, ptr %x2, align 8, !tbaa !3
  %30 = load double, ptr %x2, align 8, !tbaa !3
  %31 = load double, ptr %x2, align 8, !tbaa !3
  %32 = call double @llvm.fmuladd.f64(double %31, double 0x42A449C6B1B09EDA, double 0x42AA18C661C84C34)
  %33 = call double @llvm.fmuladd.f64(double %30, double %32, double 0x4292694763B8BB01)
  %34 = call double @llvm.fmuladd.f64(double %29, double %33, double 0x42649EBF005EB07E)
  %35 = call double @llvm.fmuladd.f64(double %28, double %34, double 0x42255AE13A418D9C)
  %36 = call double @llvm.fmuladd.f64(double %27, double %35, double 0x41D5F9E0247B82BD)
  %37 = call double @llvm.fmuladd.f64(double %26, double %36, double 0x417708DDF043A2CE)
  %38 = call double @llvm.fmuladd.f64(double %25, double %37, double 0x41082749F9EBB1F1)
  %39 = call double @llvm.fmuladd.f64(double %24, double %38, double 0x4087537F1D97ACD1)
  %40 = call double @llvm.fmuladd.f64(double %23, double %39, double 1.000000e+00)
  %mul20 = fmul double %22, %40
  %div21 = fdiv double %21, %mul20
  call void @llvm.lifetime.end.p0(i64 8, ptr %x2) #13
  ret double %div21
}