; Function Attrs: mustprogress nofree norecurse nosync nounwind willreturn memory(none) uwtable
define noundef double @_ZN8QuantLib28exponential_integrals_helper1fEd(double noundef %x) local_unnamed_addr #0 {
entry:
  %mul = fmul double %x, %x
  %div = fdiv double 1.000000e+00, %mul
  %neg = fneg double %div
  %0 = tail call double @llvm.fmuladd.f64(double %neg, double 0x425CCB9F32015A9F, double 0x42920056EACB3E14)
  %1 = tail call double @llvm.fmuladd.f64(double %div, double %0, double 0x42A255A4371F69B7)
  %2 = tail call double @llvm.fmuladd.f64(double %div, double %1, double 0x428EA124B58C7628)
  %3 = tail call double @llvm.fmuladd.f64(double %div, double %2, double 0x4262A4595375C0B4)
  %4 = tail call double @llvm.fmuladd.f64(double %div, double %3, double 0x42243289F49E1625)
  %5 = tail call double @llvm.fmuladd.f64(double %div, double %4, double 0x41D551D1358D9DA3)
  %6 = tail call double @llvm.fmuladd.f64(double %div, double %5, double 0x4176AC737033607B)
  %7 = tail call double @llvm.fmuladd.f64(double %div, double %6, double 0x4107F962FBB07365)
  %8 = tail call double @llvm.fmuladd.f64(double %div, double %7, double 0x4087437F1D97AD21)
  %9 = tail call double @llvm.fmuladd.f64(double %div, double %8, double 1.000000e+00)
  %10 = tail call double @llvm.fmuladd.f64(double %div, double 0x42A449C6B1B09EDA, double 0x42AA18C661C84C34)
  %11 = tail call double @llvm.fmuladd.f64(double %div, double %10, double 0x4292694763B8BB01)
  %12 = tail call double @llvm.fmuladd.f64(double %div, double %11, double 0x42649EBF005EB07E)
  %13 = tail call double @llvm.fmuladd.f64(double %div, double %12, double 0x42255AE13A418D9C)
  %14 = tail call double @llvm.fmuladd.f64(double %div, double %13, double 0x41D5F9E0247B82BD)
  %15 = tail call double @llvm.fmuladd.f64(double %div, double %14, double 0x417708DDF043A2CE)
  %16 = tail call double @llvm.fmuladd.f64(double %div, double %15, double 0x41082749F9EBB1F1)
  %17 = tail call double @llvm.fmuladd.f64(double %div, double %16, double 0x4087537F1D97ACD1)
  %18 = tail call double @llvm.fmuladd.f64(double %div, double %17, double 1.000000e+00)
  %mul20 = fmul double %x, %18
  %div21 = fdiv double %9, %mul20
  ret double %div21
}